target datalayout = "e-m:e-p270:32:32-p271:32:32-p272:64:64-i64:64-i128:128-f80:128-n8:16:32:64-S128"
target triple = "x86_64-pc-linux-gnu"

%struct.prov_cipher_ctx_st = type { [16 x i8], [16 x i8], [16 x i8], ptr, %union.anon, i32, i64, i64, i64, i64, i32, i8, i32, ptr, i32, i64, i32, i64, i32, ptr, ptr, ptr }
%union.anon = type { ptr }
%struct.prov_tdes_ctx_st = type { %struct.prov_cipher_ctx_st, %union.anon.0, %union.anon.2 }
%union.anon.0 = type { double, [376 x i8] }
%union.anon.2 = type { ptr }
%struct.DES_ks = type { [16 x %union.anon.1] }
%union.anon.1 = type { [2 x i32] }

; Function Attrs: nounwind uwtable
define internal i32 @ossl_cipher_hw_tdes_ofb(ptr noundef %0, ptr noundef %1, ptr noundef %2, i64 noundef %3) #0 {
  %5 = alloca ptr, align 8
  %6 = alloca ptr, align 8
  %7 = alloca ptr, align 8
  %8 = alloca i64, align 8
  %9 = alloca ptr, align 8
  %10 = alloca i32, align 4
  store ptr %0, ptr %5, align 8, !tbaa !3
  store ptr %1, ptr %6, align 8, !tbaa !8
  store ptr %2, ptr %7, align 8, !tbaa !8
  store i64 %3, ptr %8, align 8, !tbaa !10
  call void @llvm.lifetime.start.p0(i64 8, ptr %9) #5
  %11 = load ptr, ptr %5, align 8, !tbaa !3
  store ptr %11, ptr %9, align 8, !tbaa !12
  call void @llvm.lifetime.start.p0(i64 4, ptr %10) #5
  %12 = load ptr, ptr %5, align 8, !tbaa !3
  %13 = getelementptr inbounds nuw %struct.prov_cipher_ctx_st, ptr %12, i32 0, i32 18
  %14 = load i32, ptr %13, align 8, !tbaa !14
  store i32 %14, ptr %10, align 4, !tbaa !19
  br label %15

15:                                               ; preds = %18, %4
  %16 = load i64, ptr %8, align 8, !tbaa !10
  %17 = icmp uge i64 %16, 1073741824
  br i1 %17, label %18, label %39

18:                                               ; preds = %15
  %19 = load ptr, ptr %7, align 8, !tbaa !8
  %20 = load ptr, ptr %6, align 8, !tbaa !8
  %21 = load ptr, ptr %9, align 8, !tbaa !12
  %22 = getelementptr inbounds nuw %struct.prov_tdes_ctx_st, ptr %21, i32 0, i32 1
  %23 = getelementptr inbounds [3 x %struct.DES_ks], ptr %22, i64 0, i64 0
  %24 = load ptr, ptr %9, align 8, !tbaa !12
  %25 = getelementptr inbounds nuw %struct.prov_tdes_ctx_st, ptr %24, i32 0, i32 1
  %26 = getelementptr inbounds [3 x %struct.DES_ks], ptr %25, i64 0, i64 1
  %27 = load ptr, ptr %9, align 8, !tbaa !12
  %28 = getelementptr inbounds nuw %struct.prov_tdes_ctx_st, ptr %27, i32 0, i32 1
  %29 = getelementptr inbounds [3 x %struct.DES_ks], ptr %28, i64 0, i64 2
  %30 = load ptr, ptr %5, align 8, !tbaa !3
  %31 = getelementptr inbounds nuw %struct.prov_cipher_ctx_st, ptr %30, i32 0, i32 2
  %32 = getelementptr inbounds [16 x i8], ptr %31, i64 0, i64 0
  call void @DES_ede3_ofb64_encrypt(ptr noundef %19, ptr noundef %20, i64 noundef 1073741824, ptr noundef %23, ptr noundef %26, ptr noundef %29, ptr noundef %32, ptr noundef %10)
  %33 = load i64, ptr %8, align 8, !tbaa !10
  %34 = sub i64 %33, 1073741824
  store i64 %34, ptr %8, align 8, !tbaa !10
  %35 = load ptr, ptr %7, align 8, !tbaa !8
  %36 = getelementptr inbounds nuw i8, ptr %35, i64 1073741824
  store ptr %36, ptr %7, align 8, !tbaa !8
  %37 = load ptr, ptr %6, align 8, !tbaa !8
  %38 = getelementptr inbounds nuw i8, ptr %37, i64 1073741824
  store ptr %38, ptr %6, align 8, !tbaa !8
  br label %15, !llvm.loop !20

39:                                               ; preds = %15
  %40 = load i64, ptr %8, align 8, !tbaa !10
  %41 = icmp ugt i64 %40, 0
  br i1 %41, label %42, label %58

42:                                               ; preds = %39
  %43 = load ptr, ptr %7, align 8, !tbaa !8
  %44 = load ptr, ptr %6, align 8, !tbaa !8
  %45 = load i64, ptr %8, align 8, !tbaa !10
  %46 = load ptr, ptr %9, align 8, !tbaa !12
  %47 = getelementptr inbounds nuw %struct.prov_tdes_ctx_st, ptr %46, i32 0, i32 1
  %48 = getelementptr inbounds [3 x %struct.DES_ks], ptr %47, i64 0, i64 0
  %49 = load ptr, ptr %9, align 8, !tbaa !12
  %50 = getelementptr inbounds nuw %struct.prov_tdes_ctx_st, ptr %49, i32 0, i32 1
  %51 = getelementptr inbounds [3 x %struct.DES_ks], ptr %50, i64 0, i64 1
  %52 = load ptr, ptr %9, align 8, !tbaa !12
  %53 = getelementptr inbounds nuw %struct.prov_tdes_ctx_st, ptr %52, i32 0, i32 1
  %54 = getelementptr inbounds [3 x %struct.DES_ks], ptr %53, i64 0, i64 2
  %55 = load ptr, ptr %5, align 8, !tbaa !3
  %56 = getelementptr inbounds nuw %struct.prov_cipher_ctx_st, ptr %55, i32 0, i32 2
  %57 = getelementptr inbounds [16 x i8], ptr %56, i64 0, i64 0
  call void @DES_ede3_ofb64_encrypt(ptr noundef %43, ptr noundef %44, i64 noundef %45, ptr noundef %48, ptr noundef %51, ptr noundef %54, ptr noundef %57, ptr noundef %10)
  br label %58

58:                                               ; preds = %42, %39
  %59 = load i32, ptr %10, align 4, !tbaa !19
  %60 = load ptr, ptr %5, align 8, !tbaa !3
  %61 = getelementptr inbounds nuw %struct.prov_cipher_ctx_st, ptr %60, i32 0, i32 18
  store i32 %59, ptr %61, align 8, !tbaa !14
  call void @llvm.lifetime.end.p0(i64 4, ptr %10) #5
  call void @llvm.lifetime.end.p0(i64 8, ptr %9) #5
  ret i32 1
}