; Function Attrs: nounwind uwtable
define internal noundef i32 @ossl_cipher_hw_tdes_ofb(ptr noundef %0, ptr noundef %1, ptr noundef %2, i64 noundef %3) #2 {
  %5 = alloca i32, align 4
  call void @llvm.lifetime.start.p0(i64 4, ptr nonnull %5) #5
  %6 = getelementptr inbounds nuw i8, ptr %0, i64 160
  %7 = load i32, ptr %6, align 8, !tbaa !3
  store i32 %7, ptr %5, align 4, !tbaa !13
  %8 = icmp ugt i64 %3, 1073741823
  br i1 %8, label %.lr.ph, label %._crit_edge

.lr.ph:                                           ; preds = %4
  %9 = getelementptr inbounds nuw i8, ptr %0, i64 192
  %10 = getelementptr inbounds nuw i8, ptr %0, i64 320
  %11 = getelementptr inbounds nuw i8, ptr %0, i64 448
  %12 = getelementptr inbounds nuw i8, ptr %0, i64 32
  br label %13

13:                                               ; preds = %.lr.ph, %13
  %.024 = phi ptr [ %1, %.lr.ph ], [ %16, %13 ]
  %.02023 = phi i64 [ %3, %.lr.ph ], [ %14, %13 ]
  %.02122 = phi ptr [ %2, %.lr.ph ], [ %15, %13 ]
  call void @DES_ede3_ofb64_encrypt(ptr noundef %.02122, ptr noundef %.024, i64 noundef 1073741824, ptr noundef nonnull %9, ptr noundef nonnull %10, ptr noundef nonnull %11, ptr noundef nonnull %12, ptr noundef nonnull %5) #5
  %14 = add i64 %.02023, -1073741824
  %15 = getelementptr inbounds nuw i8, ptr %.02122, i64 1073741824
  %16 = getelementptr inbounds nuw i8, ptr %.024, i64 1073741824
  %17 = icmp ugt i64 %14, 1073741823
  br i1 %17, label %13, label %._crit_edge, !llvm.loop !14

._crit_edge:                                      ; preds = %13, %4
  %.021.lcssa = phi ptr [ %2, %4 ], [ %15, %13 ]
  %.020.lcssa = phi i64 [ %3, %4 ], [ %14, %13 ]
  %.0.lcssa = phi ptr [ %1, %4 ], [ %16, %13 ]
  %.not = icmp eq i64 %.020.lcssa, 0
  br i1 %.not, label %23, label %18

18:                                               ; preds = %._crit_edge
  %19 = getelementptr inbounds nuw i8, ptr %0, i64 192
  %20 = getelementptr inbounds nuw i8, ptr %0, i64 320
  %21 = getelementptr inbounds nuw i8, ptr %0, i64 448
  %22 = getelementptr inbounds nuw i8, ptr %0, i64 32
  call void @DES_ede3_ofb64_encrypt(ptr noundef %.021.lcssa, ptr noundef %.0.lcssa, i64 noundef %.020.lcssa, ptr noundef nonnull %19, ptr noundef nonnull %20, ptr noundef nonnull %21, ptr noundef nonnull %22, ptr noundef nonnull %5) #5
  br label %23

23:                                               ; preds = %18, %._crit_edge
  %24 = load i32, ptr %5, align 4, !tbaa !13
  store i32 %24, ptr %6, align 8, !tbaa !3
  call void @llvm.lifetime.end.p0(i64 4, ptr nonnull %5) #5
  ret i32 1
}